target datalayout = "e-m:e-p270:32:32-p271:32:32-p272:64:64-i64:64-i128:128-f80:128-n8:16:32:64-S128"
target triple = "x86_64-pc-linux-gnu"

%struct.ItemPointerData = type { %struct.BlockIdData, i16 }
%struct.BlockIdData = type { i16, i16 }
%struct.TM_FailureData = type { %struct.ItemPointerData, i32, i32, i8 }

@.str.1 = private unnamed_addr constant [9 x i8] c"heapam.c\00", align 1
@.str.5 = private unnamed_addr constant [30 x i8] c"tuple already updated by self\00", align 1
@.str.6 = private unnamed_addr constant [27 x i8] c"tuple concurrently updated\00", align 1
@.str.7 = private unnamed_addr constant [27 x i8] c"tuple concurrently deleted\00", align 1
@__func__.simple_heap_update = private unnamed_addr constant [19 x i8] c"simple_heap_update\00", align 1
@.str.12 = private unnamed_addr constant [36 x i8] c"unrecognized heap_update status: %u\00", align 1

; Function Attrs: nounwind uwtable
define dso_local void @simple_heap_update(ptr noundef %0, ptr noundef %1, ptr noundef %2, ptr noundef %3) #0 {
  %5 = alloca ptr, align 8
  %6 = alloca ptr, align 8
  %7 = alloca ptr, align 8
  %8 = alloca ptr, align 8
  %9 = alloca i32, align 4
  %10 = alloca %struct.TM_FailureData, align 4
  %11 = alloca i32, align 4
  store ptr %0, ptr %5, align 8
  store ptr %1, ptr %6, align 8
  store ptr %2, ptr %7, align 8
  store ptr %3, ptr %8, align 8
  call void @llvm.lifetime.start.p0(i64 4, ptr %9) #10
  call void @llvm.lifetime.start.p0(i64 20, ptr %10) #10
  call void @llvm.lifetime.start.p0(i64 4, ptr %11) #10
  %12 = load ptr, ptr %5, align 8
  %13 = load ptr, ptr %6, align 8
  %14 = load ptr, ptr %7, align 8
  %15 = call i32 @GetCurrentCommandId(i1 noundef zeroext true)
  %16 = load ptr, ptr %8, align 8
  %17 = call i32 @heap_update(ptr noundef %12, ptr noundef %13, ptr noundef %14, i32 noundef %15, ptr noundef null, i1 noundef zeroext true, ptr noundef %10, ptr noundef %11, ptr noundef %16)
  store i32 %17, ptr %9, align 4
  %18 = load i32, ptr %9, align 4
  switch i32 %18, label %52 [
    i32 2, label %19
    i32 0, label %64
    i32 3, label %30
    i32 4, label %41
  ]

19:                                               ; preds = %4
  br label %20

20:                                               ; preds = %19
  br i1 true, label %21, label %23

21:                                               ; preds = %20
  %22 = call zeroext i1 @errstart_cold(i32 noundef 21, ptr noundef null) #11
  br i1 %22, label %25, label %27

23:                                               ; preds = %20
  %24 = call zeroext i1 @errstart(i32 noundef 21, ptr noundef null)
  br i1 %24, label %25, label %27

25:                                               ; preds = %23, %21
  %26 = call i32 (ptr, ...) @errmsg_internal(ptr noundef @.str.5)
  call void @errfinish(ptr noundef @.str.1, i32 noundef 4421, ptr noundef @__func__.simple_heap_update)
  br label %27

27:                                               ; preds = %25, %23, %21
  unreachable

28:                                               ; No predecessors!
  br label %29

29:                                               ; preds = %28
  br label %64

30:                                               ; preds = %4
  br label %31

31:                                               ; preds = %30
  br i1 true, label %32, label %34

32:                                               ; preds = %31
  %33 = call zeroext i1 @errstart_cold(i32 noundef 21, ptr noundef null) #11
  br i1 %33, label %36, label %38

34:                                               ; preds = %31
  %35 = call zeroext i1 @errstart(i32 noundef 21, ptr noundef null)
  br i1 %35, label %36, label %38

36:                                               ; preds = %34, %32
  %37 = call i32 (ptr, ...) @errmsg_internal(ptr noundef @.str.6)
  call void @errfinish(ptr noundef @.str.1, i32 noundef 4429, ptr noundef @__func__.simple_heap_update)
  br label %38

38:                                               ; preds = %36, %34, %32
  unreachable

39:                                               ; No predecessors!
  br label %40

40:                                               ; preds = %39
  br label %64

41:                                               ; preds = %4
  br label %42

42:                                               ; preds = %41
  br i1 true, label %43, label %45

43:                                               ; preds = %42
  %44 = call zeroext i1 @errstart_cold(i32 noundef 21, ptr noundef null) #11
  br i1 %44, label %47, label %49

45:                                               ; preds = %42
  %46 = call zeroext i1 @errstart(i32 noundef 21, ptr noundef null)
  br i1 %46, label %47, label %49

47:                                               ; preds = %45, %43
  %48 = call i32 (ptr, ...) @errmsg_internal(ptr noundef @.str.7)
  call void @errfinish(ptr noundef @.str.1, i32 noundef 4433, ptr noundef @__func__.simple_heap_update)
  br label %49

49:                                               ; preds = %47, %45, %43
  unreachable

50:                                               ; No predecessors!
  br label %51

51:                                               ; preds = %50
  br label %64

52:                                               ; preds = %4
  br label %53

53:                                               ; preds = %52
  br i1 true, label %54, label %56

54:                                               ; preds = %53
  %55 = call zeroext i1 @errstart_cold(i32 noundef 21, ptr noundef null) #11
  br i1 %55, label %58, label %61

56:                                               ; preds = %53
  %57 = call zeroext i1 @errstart(i32 noundef 21, ptr noundef null)
  br i1 %57, label %58, label %61

58:                                               ; preds = %56, %54
  %59 = load i32, ptr %9, align 4
  %60 = call i32 (ptr, ...) @errmsg_internal(ptr noundef @.str.12, i32 noundef %59)
  call void @errfinish(ptr noundef @.str.1, i32 noundef 4437, ptr noundef @__func__.simple_heap_update)
  br label %61

61:                                               ; preds = %58, %56, %54
  unreachable

62:                                               ; No predecessors!
  br label %63

63:                                               ; preds = %62
  br label %64

64:                                               ; preds = %63, %51, %40, %4, %29
  call void @llvm.lifetime.end.p0(i64 4, ptr %11) #10
  call void @llvm.lifetime.end.p0(i64 20, ptr %10) #10
  call void @llvm.lifetime.end.p0(i64 4, ptr %9) #10
  ret void
}