; Function Attrs: nounwind uwtable
define dso_local void @simple_heap_update(ptr noundef %0, ptr noundef readonly captures(none) %1, ptr noundef %2, ptr noundef writeonly captures(none) %3) local_unnamed_addr #2 {
  %5 = alloca %struct.TM_FailureData, align 4
  %6 = alloca i32, align 4
  call void @llvm.lifetime.start.p0(i64 20, ptr nonnull %5) #13
  call void @llvm.lifetime.start.p0(i64 4, ptr nonnull %6) #13
  %7 = tail call i32 @GetCurrentCommandId(i1 noundef zeroext true) #13
  %8 = call i32 @heap_update(ptr noundef %0, ptr noundef %1, ptr noundef %2, i32 noundef %7, ptr noundef null, i1 noundef zeroext true, ptr noundef nonnull %5, ptr noundef nonnull %6, ptr noundef %3)
  switch i32 %8, label %18 [
    i32 2, label %9
    i32 0, label %21
    i32 3, label %12
    i32 4, label %15
  ]

9:                                                ; preds = %4
  %10 = tail call zeroext i1 @errstart_cold(i32 noundef 21, ptr noundef null) #14
  tail call void @llvm.assume(i1 %10)
  %11 = tail call i32 (ptr, ...) @errmsg_internal(ptr noundef nonnull @.str.5) #13
  tail call void @errfinish(ptr noundef nonnull @.str.1, i32 noundef 4421, ptr noundef nonnull @__func__.simple_heap_update) #13
  unreachable

12:                                               ; preds = %4
  %13 = tail call zeroext i1 @errstart_cold(i32 noundef 21, ptr noundef null) #14
  tail call void @llvm.assume(i1 %13)
  %14 = tail call i32 (ptr, ...) @errmsg_internal(ptr noundef nonnull @.str.6) #13
  tail call void @errfinish(ptr noundef nonnull @.str.1, i32 noundef 4429, ptr noundef nonnull @__func__.simple_heap_update) #13
  unreachable

15:                                               ; preds = %4
  %16 = tail call zeroext i1 @errstart_cold(i32 noundef 21, ptr noundef null) #14
  tail call void @llvm.assume(i1 %16)
  %17 = tail call i32 (ptr, ...) @errmsg_internal(ptr noundef nonnull @.str.7) #13
  tail call void @errfinish(ptr noundef nonnull @.str.1, i32 noundef 4433, ptr noundef nonnull @__func__.simple_heap_update) #13
  unreachable

18:                                               ; preds = %4
  %19 = tail call zeroext i1 @errstart_cold(i32 noundef 21, ptr noundef null) #14
  tail call void @llvm.assume(i1 %19)
  %20 = tail call i32 (ptr, ...) @errmsg_internal(ptr noundef nonnull @.str.12, i32 noundef %8) #13
  tail call void @errfinish(ptr noundef nonnull @.str.1, i32 noundef 4437, ptr noundef nonnull @__func__.simple_heap_update) #13
  unreachable

21:                                               ; preds = %4
  call void @llvm.lifetime.end.p0(i64 4, ptr nonnull %6) #13
  call void @llvm.lifetime.end.p0(i64 20, ptr nonnull %5) #13
  ret void
}